target datalayout = "e-m:e-p270:32:32-p271:32:32-p272:64:64-i64:64-i128:128-f80:128-n8:16:32:64-S128"
target triple = "x86_64-pc-linux-gnu"

%struct.lean_object = type { i32, i32 }
%struct.lean_ctor_object = type { %struct.lean_object, [0 x ptr] }

; Function Attrs: inlinehint nounwind uwtable
define internal ptr @lean_to_ctor(ptr noundef %0) #1 {
  %2 = alloca ptr, align 8
  store ptr %0, ptr %2, align 8, !tbaa !4
  %3 = load ptr, ptr %2, align 8, !tbaa !4
  ret ptr %3
}

; Function Attrs: inlinehint nounwind uwtable
define internal ptr @lean_alloc_small_object(i32 noundef %0) #1 {
  %2 = alloca i32, align 4
  %3 = alloca ptr, align 8
  %4 = alloca ptr, align 8
  store i32 %0, ptr %2, align 4, !tbaa !16
  call void @lean_inc_heartbeat()
  %5 = load i32, ptr %2, align 4, !tbaa !16
  %6 = zext i32 %5 to i64
  %7 = call i64 @lean_align(i64 noundef %6, i64 noundef 8)
  %8 = trunc i64 %7 to i32
  store i32 %8, ptr %2, align 4, !tbaa !16
  call void @llvm.lifetime.start.p0(i64 8, ptr %3) #7
  %9 = load i32, ptr %2, align 4, !tbaa !16
  %10 = zext i32 %9 to i64
  %11 = call noalias ptr @mi_malloc_small(i64 noundef %10)
  store ptr %11, ptr %3, align 8, !tbaa !4
  %12 = load ptr, ptr %3, align 8, !tbaa !4
  %13 = icmp eq ptr %12, null
  br i1 %13, label %14, label %15

14:                                               ; preds = %1
  call void @lean_internal_panic_out_of_memory() #8
  unreachable

15:                                               ; preds = %1
  call void @llvm.lifetime.start.p0(i64 8, ptr %4) #7
  %16 = load ptr, ptr %3, align 8, !tbaa !4
  store ptr %16, ptr %4, align 8, !tbaa !4
  %17 = load i32, ptr %2, align 4, !tbaa !16
  %18 = load ptr, ptr %4, align 8, !tbaa !4
  %19 = getelementptr inbounds nuw %struct.lean_object, ptr %18, i32 0, i32 1
  %20 = load i32, ptr %19, align 4
  %21 = and i32 %17, 65535
  %22 = and i32 %20, -65536
  %23 = or i32 %22, %21
  store i32 %23, ptr %19, align 4
  %24 = load ptr, ptr %4, align 8, !tbaa !4
  call void @llvm.lifetime.end.p0(i64 8, ptr %4) #7
  call void @llvm.lifetime.end.p0(i64 8, ptr %3) #7
  ret ptr %24
}

; Function Attrs: inlinehint nounwind uwtable
define internal i64 @lean_align(i64 noundef %0, i64 noundef %1) #1 {
  %3 = alloca i64, align 8
  %4 = alloca i64, align 8
  store i64 %0, ptr %3, align 8, !tbaa !8
  store i64 %1, ptr %4, align 8, !tbaa !8
  %5 = load i64, ptr %3, align 8, !tbaa !8
  %6 = load i64, ptr %4, align 8, !tbaa !8
  %7 = udiv i64 %5, %6
  %8 = load i64, ptr %4, align 8, !tbaa !8
  %9 = mul i64 %7, %8
  %10 = load i64, ptr %4, align 8, !tbaa !8
  %11 = load i64, ptr %3, align 8, !tbaa !8
  %12 = load i64, ptr %4, align 8, !tbaa !8
  %13 = urem i64 %11, %12
  %14 = icmp ne i64 %13, 0
  %15 = zext i1 %14 to i32
  %16 = sext i32 %15 to i64
  %17 = mul i64 %10, %16
  %18 = add i64 %9, %17
  ret i64 %18
}

; Function Attrs: inlinehint nounwind uwtable
define internal ptr @lean_box(i64 noundef %0) #1 {
  %2 = alloca i64, align 8
  store i64 %0, ptr %2, align 8, !tbaa !8
  %3 = load i64, ptr %2, align 8, !tbaa !8
  %4 = shl i64 %3, 1
  %5 = or i64 %4, 1
  %6 = inttoptr i64 %5 to ptr
  ret ptr %6
}

; Function Attrs: inlinehint nounwind uwtable
define internal ptr @lean_ctor_obj_cptr(ptr noundef %0) #1 {
  %2 = alloca ptr, align 8
  store ptr %0, ptr %2, align 8, !tbaa !4
  %3 = load ptr, ptr %2, align 8, !tbaa !4
  %4 = call ptr @lean_to_ctor(ptr noundef %3)
  %5 = getelementptr inbounds nuw %struct.lean_ctor_object, ptr %4, i32 0, i32 1
  %6 = getelementptr inbounds [0 x ptr], ptr %5, i64 0, i64 0
  ret ptr %6
}

; Function Attrs: inlinehint nounwind uwtable
define internal void @lean_set_st_header(ptr noundef %0, i32 noundef %1, i32 noundef %2) #1 {
  %4 = alloca ptr, align 8
  %5 = alloca i32, align 4
  %6 = alloca i32, align 4
  store ptr %0, ptr %4, align 8, !tbaa !4
  store i32 %1, ptr %5, align 4, !tbaa !16
  store i32 %2, ptr %6, align 4, !tbaa !16
  %7 = load ptr, ptr %4, align 8, !tbaa !4
  %8 = getelementptr inbounds nuw %struct.lean_object, ptr %7, i32 0, i32 0
  store i32 1, ptr %8, align 4, !tbaa !13
  %9 = load i32, ptr %5, align 4, !tbaa !16
  %10 = load ptr, ptr %4, align 8, !tbaa !4
  %11 = getelementptr inbounds nuw %struct.lean_object, ptr %10, i32 0, i32 1
  %12 = load i32, ptr %11, align 4
  %13 = and i32 %9, 255
  %14 = shl i32 %13, 24
  %15 = and i32 %12, 16777215
  %16 = or i32 %15, %14
  store i32 %16, ptr %11, align 4
  %17 = load i32, ptr %6, align 4, !tbaa !16
  %18 = load ptr, ptr %4, align 8, !tbaa !4
  %19 = getelementptr inbounds nuw %struct.lean_object, ptr %18, i32 0, i32 1
  %20 = load i32, ptr %19, align 4
  %21 = and i32 %17, 255
  %22 = shl i32 %21, 16
  %23 = and i32 %20, -16711681
  %24 = or i32 %23, %22
  store i32 %24, ptr %19, align 4
  ret void
}

; Function Attrs: inlinehint nounwind uwtable
define internal ptr @lean_alloc_ctor_memory(i32 noundef %0) #1 {
  %2 = alloca i32, align 4
  %3 = alloca i32, align 4
  %4 = alloca ptr, align 8
  %5 = alloca ptr, align 8
  store i32 %0, ptr %2, align 4, !tbaa !16
  call void @llvm.lifetime.start.p0(i64 4, ptr %3) #7
  %6 = load i32, ptr %2, align 4, !tbaa !16
  %7 = zext i32 %6 to i64
  %8 = call i64 @lean_align(i64 noundef %7, i64 noundef 8)
  %9 = trunc i64 %8 to i32
  store i32 %9, ptr %3, align 4, !tbaa !16
  call void @llvm.lifetime.start.p0(i64 8, ptr %4) #7
  %10 = load i32, ptr %2, align 4, !tbaa !16
  %11 = call ptr @lean_alloc_small_object(i32 noundef %10)
  store ptr %11, ptr %4, align 8, !tbaa !4
  %12 = load i32, ptr %3, align 4, !tbaa !16
  %13 = load i32, ptr %2, align 4, !tbaa !16
  %14 = icmp ugt i32 %12, %13
  br i1 %14, label %15, label %22

15:                                               ; preds = %1
  call void @llvm.lifetime.start.p0(i64 8, ptr %5) #7
  %16 = load ptr, ptr %4, align 8, !tbaa !4
  %17 = load i32, ptr %3, align 4, !tbaa !16
  %18 = zext i32 %17 to i64
  %19 = getelementptr inbounds nuw i8, ptr %16, i64 %18
  store ptr %19, ptr %5, align 8, !tbaa !23
  %20 = load ptr, ptr %5, align 8, !tbaa !23
  %21 = getelementptr inbounds i64, ptr %20, i64 -1
  store i64 0, ptr %21, align 8, !tbaa !8
  call void @llvm.lifetime.end.p0(i64 8, ptr %5) #7
  br label %22

22:                                               ; preds = %15, %1
  %23 = load ptr, ptr %4, align 8, !tbaa !4
  call void @llvm.lifetime.end.p0(i64 8, ptr %4) #7
  call void @llvm.lifetime.end.p0(i64 4, ptr %3) #7
  ret ptr %23
}

; Function Attrs: alwaysinline nounwind uwtable
define internal void @lean_dec_ref(ptr noundef %0) #0 {
  %2 = alloca ptr, align 8
  store ptr %0, ptr %2, align 8, !tbaa !4
  %3 = load ptr, ptr %2, align 8, !tbaa !4
  %4 = getelementptr inbounds nuw %struct.lean_object, ptr %3, i32 0, i32 0
  %5 = load i32, ptr %4, align 4, !tbaa !13
  %6 = icmp sgt i32 %5, 1
  %7 = zext i1 %6 to i32
  %8 = sext i32 %7 to i64
  %9 = call i64 @llvm.expect.i64(i64 %8, i64 1)
  %10 = icmp ne i64 %9, 0
  br i1 %10, label %11, label %16

11:                                               ; preds = %1
  %12 = load ptr, ptr %2, align 8, !tbaa !4
  %13 = getelementptr inbounds nuw %struct.lean_object, ptr %12, i32 0, i32 0
  %14 = load i32, ptr %13, align 4, !tbaa !13
  %15 = add i32 %14, -1
  store i32 %15, ptr %13, align 4, !tbaa !13
  br label %24

16:                                               ; preds = %1
  %17 = load ptr, ptr %2, align 8, !tbaa !4
  %18 = getelementptr inbounds nuw %struct.lean_object, ptr %17, i32 0, i32 0
  %19 = load i32, ptr %18, align 4, !tbaa !13
  %20 = icmp ne i32 %19, 0
  br i1 %20, label %21, label %23

21:                                               ; preds = %16
  %22 = load ptr, ptr %2, align 8, !tbaa !4
  call void @lean_dec_ref_cold(ptr noundef %22)
  br label %23

23:                                               ; preds = %21, %16
  br label %24

24:                                               ; preds = %23, %11
  ret void
}

; Function Attrs: inlinehint nounwind uwtable
define internal i64 @lean_unbox(ptr noundef %0) #1 {
  %2 = alloca ptr, align 8
  store ptr %0, ptr %2, align 8, !tbaa !4
  %3 = load ptr, ptr %2, align 8, !tbaa !4
  %4 = ptrtoint ptr %3 to i64
  %5 = lshr i64 %4, 1
  ret i64 %5
}

; Function Attrs: alwaysinline nounwind uwtable
define internal zeroext i1 @lean_is_scalar(ptr noundef %0) #0 {
  %2 = alloca ptr, align 8
  store ptr %0, ptr %2, align 8, !tbaa !4
  %3 = load ptr, ptr %2, align 8, !tbaa !4
  %4 = ptrtoint ptr %3 to i64
  %5 = and i64 %4, 1
  %6 = icmp eq i64 %5, 1
  ret i1 %6
}

; Function Attrs: inlinehint nounwind uwtable
define internal ptr @lean_usize_to_nat(i64 noundef %0) #1 {
  %2 = alloca ptr, align 8
  %3 = alloca i64, align 8
  store i64 %0, ptr %3, align 8, !tbaa !8
  %4 = load i64, ptr %3, align 8, !tbaa !8
  %5 = icmp ule i64 %4, 9223372036854775807
  %6 = zext i1 %5 to i32
  %7 = sext i32 %6 to i64
  %8 = call i64 @llvm.expect.i64(i64 %7, i64 1)
  %9 = icmp ne i64 %8, 0
  br i1 %9, label %10, label %13

10:                                               ; preds = %1
  %11 = load i64, ptr %3, align 8, !tbaa !8
  %12 = call ptr @lean_box(i64 noundef %11)
  store ptr %12, ptr %2, align 8
  br label %16

13:                                               ; preds = %1
  %14 = load i64, ptr %3, align 8, !tbaa !8
  %15 = call ptr @lean_big_usize_to_nat(i64 noundef %14)
  store ptr %15, ptr %2, align 8
  br label %16

16:                                               ; preds = %13, %10
  %17 = load ptr, ptr %2, align 8
  ret ptr %17
}

; Function Attrs: inlinehint nounwind uwtable
define internal void @lean_ctor_set(ptr noundef %0, i32 noundef %1, ptr noundef %2) #1 {
  %4 = alloca ptr, align 8
  %5 = alloca i32, align 4
  %6 = alloca ptr, align 8
  store ptr %0, ptr %4, align 8, !tbaa !4
  store i32 %1, ptr %5, align 4, !tbaa !16
  store ptr %2, ptr %6, align 8, !tbaa !4
  %7 = load ptr, ptr %6, align 8, !tbaa !4
  %8 = load ptr, ptr %4, align 8, !tbaa !4
  %9 = call ptr @lean_ctor_obj_cptr(ptr noundef %8)
  %10 = load i32, ptr %5, align 4, !tbaa !16
  %11 = zext i32 %10 to i64
  %12 = getelementptr inbounds nuw ptr, ptr %9, i64 %11
  store ptr %7, ptr %12, align 8, !tbaa !4
  ret void
}

; Function Attrs: inlinehint nounwind uwtable
define internal ptr @lean_alloc_ctor(i32 noundef %0, i32 noundef %1, i32 noundef %2) #1 {
  %4 = alloca i32, align 4
  %5 = alloca i32, align 4
  %6 = alloca i32, align 4
  %7 = alloca ptr, align 8
  store i32 %0, ptr %4, align 4, !tbaa !16
  store i32 %1, ptr %5, align 4, !tbaa !16
  store i32 %2, ptr %6, align 4, !tbaa !16
  call void @llvm.lifetime.start.p0(i64 8, ptr %7) #7
  %8 = load i32, ptr %5, align 4, !tbaa !16
  %9 = zext i32 %8 to i64
  %10 = mul i64 8, %9
  %11 = add i64 8, %10
  %12 = load i32, ptr %6, align 4, !tbaa !16
  %13 = zext i32 %12 to i64
  %14 = add i64 %11, %13
  %15 = trunc i64 %14 to i32
  %16 = call ptr @lean_alloc_ctor_memory(i32 noundef %15)
  store ptr %16, ptr %7, align 8, !tbaa !4
  %17 = load ptr, ptr %7, align 8, !tbaa !4
  %18 = load i32, ptr %4, align 4, !tbaa !16
  %19 = load i32, ptr %5, align 4, !tbaa !16
  call void @lean_set_st_header(ptr noundef %17, i32 noundef %18, i32 noundef %19)
  %20 = load ptr, ptr %7, align 8, !tbaa !4
  call void @llvm.lifetime.end.p0(i64 8, ptr %7) #7
  ret ptr %20
}

; Function Attrs: alwaysinline nounwind uwtable
define internal void @lean_dec(ptr noundef %0) #0 {
  %2 = alloca ptr, align 8
  store ptr %0, ptr %2, align 8, !tbaa !4
  %3 = load ptr, ptr %2, align 8, !tbaa !4
  %4 = call zeroext i1 @lean_is_scalar(ptr noundef %3)
  br i1 %4, label %7, label %5

5:                                                ; preds = %1
  %6 = load ptr, ptr %2, align 8, !tbaa !4
  call void @lean_dec_ref(ptr noundef %6)
  br label %7

7:                                                ; preds = %5, %1
  ret void
}

; Function Attrs: alwaysinline nounwind uwtable
define internal ptr @lean_nat_add(ptr noundef %0, ptr noundef %1) #0 {
  %3 = alloca ptr, align 8
  %4 = alloca ptr, align 8
  %5 = alloca ptr, align 8
  store ptr %0, ptr %4, align 8, !tbaa !4
  store ptr %1, ptr %5, align 8, !tbaa !4
  %6 = load ptr, ptr %4, align 8, !tbaa !4
  %7 = call zeroext i1 @lean_is_scalar(ptr noundef %6)
  br i1 %7, label %8, label %11

8:                                                ; preds = %2
  %9 = load ptr, ptr %5, align 8, !tbaa !4
  %10 = call zeroext i1 @lean_is_scalar(ptr noundef %9)
  br label %11

11:                                               ; preds = %8, %2
  %12 = phi i1 [ false, %2 ], [ %10, %8 ]
  %13 = zext i1 %12 to i32
  %14 = sext i32 %13 to i64
  %15 = call i64 @llvm.expect.i64(i64 %14, i64 1)
  %16 = icmp ne i64 %15, 0
  br i1 %16, label %17, label %24

17:                                               ; preds = %11
  %18 = load ptr, ptr %4, align 8, !tbaa !4
  %19 = call i64 @lean_unbox(ptr noundef %18)
  %20 = load ptr, ptr %5, align 8, !tbaa !4
  %21 = call i64 @lean_unbox(ptr noundef %20)
  %22 = add i64 %19, %21
  %23 = call ptr @lean_usize_to_nat(i64 noundef %22)
  store ptr %23, ptr %3, align 8
  br label %28

24:                                               ; preds = %11
  %25 = load ptr, ptr %4, align 8, !tbaa !4
  %26 = load ptr, ptr %5, align 8, !tbaa !4
  %27 = call ptr @lean_nat_big_add(ptr noundef %25, ptr noundef %26)
  store ptr %27, ptr %3, align 8
  br label %28

28:                                               ; preds = %24, %17
  %29 = load ptr, ptr %3, align 8
  ret ptr %29
}

; Function Attrs: inlinehint nounwind uwtable
define internal ptr @lean_unsigned_to_nat(i32 noundef %0) #1 {
  %2 = alloca i32, align 4
  store i32 %0, ptr %2, align 4, !tbaa !16
  %3 = load i32, ptr %2, align 4, !tbaa !16
  %4 = zext i32 %3 to i64
  %5 = call ptr @lean_usize_to_nat(i64 noundef %4)
  ret ptr %5
}

; Function Attrs: nounwind uwtable
define ptr @l_Lean_Lsp_CompletionItemKind_toCtorIdx(i8 noundef zeroext %0) #2 {
  %2 = alloca ptr, align 8
  %3 = alloca i8, align 1
  %4 = alloca ptr, align 8
  %5 = alloca ptr, align 8
  %6 = alloca ptr, align 8
  %7 = alloca ptr, align 8
  %8 = alloca ptr, align 8
  %9 = alloca ptr, align 8
  %10 = alloca ptr, align 8
  %11 = alloca ptr, align 8
  %12 = alloca ptr, align 8
  %13 = alloca ptr, align 8
  %14 = alloca ptr, align 8
  %15 = alloca ptr, align 8
  %16 = alloca ptr, align 8
  %17 = alloca ptr, align 8
  %18 = alloca ptr, align 8
  %19 = alloca ptr, align 8
  %20 = alloca ptr, align 8
  %21 = alloca ptr, align 8
  %22 = alloca ptr, align 8
  %23 = alloca ptr, align 8
  %24 = alloca ptr, align 8
  %25 = alloca ptr, align 8
  %26 = alloca ptr, align 8
  %27 = alloca ptr, align 8
  %28 = alloca ptr, align 8
  store i8 %0, ptr %3, align 1, !tbaa !12
  br label %29

29:                                               ; preds = %1
  %30 = load i8, ptr %3, align 1, !tbaa !12
  %31 = zext i8 %30 to i32
  switch i32 %31, label %104 [
    i32 0, label %32
    i32 1, label %35
    i32 2, label %38
    i32 3, label %41
    i32 4, label %44
    i32 5, label %47
    i32 6, label %50
    i32 7, label %53
    i32 8, label %56
    i32 9, label %59
    i32 10, label %62
    i32 11, label %65
    i32 12, label %68
    i32 13, label %71
    i32 14, label %74
    i32 15, label %77
    i32 16, label %80
    i32 17, label %83
    i32 18, label %86
    i32 19, label %89
    i32 20, label %92
    i32 21, label %95
    i32 22, label %98
    i32 23, label %101
  ]

32:                                               ; preds = %29
  call void @llvm.lifetime.start.p0(i64 8, ptr %4) #7
  %33 = call ptr @lean_unsigned_to_nat(i32 noundef 0)
  store ptr %33, ptr %4, align 8, !tbaa !4
  %34 = load ptr, ptr %4, align 8, !tbaa !4
  store ptr %34, ptr %2, align 8
  call void @llvm.lifetime.end.p0(i64 8, ptr %4) #7
  br label %107

35:                                               ; preds = %29
  call void @llvm.lifetime.start.p0(i64 8, ptr %5) #7
  %36 = call ptr @lean_unsigned_to_nat(i32 noundef 1)
  store ptr %36, ptr %5, align 8, !tbaa !4
  %37 = load ptr, ptr %5, align 8, !tbaa !4
  store ptr %37, ptr %2, align 8
  call void @llvm.lifetime.end.p0(i64 8, ptr %5) #7
  br label %107

38:                                               ; preds = %29
  call void @llvm.lifetime.start.p0(i64 8, ptr %6) #7
  %39 = call ptr @lean_unsigned_to_nat(i32 noundef 2)
  store ptr %39, ptr %6, align 8, !tbaa !4
  %40 = load ptr, ptr %6, align 8, !tbaa !4
  store ptr %40, ptr %2, align 8
  call void @llvm.lifetime.end.p0(i64 8, ptr %6) #7
  br label %107

41:                                               ; preds = %29
  call void @llvm.lifetime.start.p0(i64 8, ptr %7) #7
  %42 = call ptr @lean_unsigned_to_nat(i32 noundef 3)
  store ptr %42, ptr %7, align 8, !tbaa !4
  %43 = load ptr, ptr %7, align 8, !tbaa !4
  store ptr %43, ptr %2, align 8
  call void @llvm.lifetime.end.p0(i64 8, ptr %7) #7
  br label %107

44:                                               ; preds = %29
  call void @llvm.lifetime.start.p0(i64 8, ptr %8) #7
  %45 = call ptr @lean_unsigned_to_nat(i32 noundef 4)
  store ptr %45, ptr %8, align 8, !tbaa !4
  %46 = load ptr, ptr %8, align 8, !tbaa !4
  store ptr %46, ptr %2, align 8
  call void @llvm.lifetime.end.p0(i64 8, ptr %8) #7
  br label %107

47:                                               ; preds = %29
  call void @llvm.lifetime.start.p0(i64 8, ptr %9) #7
  %48 = call ptr @lean_unsigned_to_nat(i32 noundef 5)
  store ptr %48, ptr %9, align 8, !tbaa !4
  %49 = load ptr, ptr %9, align 8, !tbaa !4
  store ptr %49, ptr %2, align 8
  call void @llvm.lifetime.end.p0(i64 8, ptr %9) #7
  br label %107

50:                                               ; preds = %29
  call void @llvm.lifetime.start.p0(i64 8, ptr %10) #7
  %51 = call ptr @lean_unsigned_to_nat(i32 noundef 6)
  store ptr %51, ptr %10, align 8, !tbaa !4
  %52 = load ptr, ptr %10, align 8, !tbaa !4
  store ptr %52, ptr %2, align 8
  call void @llvm.lifetime.end.p0(i64 8, ptr %10) #7
  br label %107

53:                                               ; preds = %29
  call void @llvm.lifetime.start.p0(i64 8, ptr %11) #7
  %54 = call ptr @lean_unsigned_to_nat(i32 noundef 7)
  store ptr %54, ptr %11, align 8, !tbaa !4
  %55 = load ptr, ptr %11, align 8, !tbaa !4
  store ptr %55, ptr %2, align 8
  call void @llvm.lifetime.end.p0(i64 8, ptr %11) #7
  br label %107

56:                                               ; preds = %29
  call void @llvm.lifetime.start.p0(i64 8, ptr %12) #7
  %57 = call ptr @lean_unsigned_to_nat(i32 noundef 8)
  store ptr %57, ptr %12, align 8, !tbaa !4
  %58 = load ptr, ptr %12, align 8, !tbaa !4
  store ptr %58, ptr %2, align 8
  call void @llvm.lifetime.end.p0(i64 8, ptr %12) #7
  br label %107

59:                                               ; preds = %29
  call void @llvm.lifetime.start.p0(i64 8, ptr %13) #7
  %60 = call ptr @lean_unsigned_to_nat(i32 noundef 9)
  store ptr %60, ptr %13, align 8, !tbaa !4
  %61 = load ptr, ptr %13, align 8, !tbaa !4
  store ptr %61, ptr %2, align 8
  call void @llvm.lifetime.end.p0(i64 8, ptr %13) #7
  br label %107

62:                                               ; preds = %29
  call void @llvm.lifetime.start.p0(i64 8, ptr %14) #7
  %63 = call ptr @lean_unsigned_to_nat(i32 noundef 10)
  store ptr %63, ptr %14, align 8, !tbaa !4
  %64 = load ptr, ptr %14, align 8, !tbaa !4
  store ptr %64, ptr %2, align 8
  call void @llvm.lifetime.end.p0(i64 8, ptr %14) #7
  br label %107

65:                                               ; preds = %29
  call void @llvm.lifetime.start.p0(i64 8, ptr %15) #7
  %66 = call ptr @lean_unsigned_to_nat(i32 noundef 11)
  store ptr %66, ptr %15, align 8, !tbaa !4
  %67 = load ptr, ptr %15, align 8, !tbaa !4
  store ptr %67, ptr %2, align 8
  call void @llvm.lifetime.end.p0(i64 8, ptr %15) #7
  br label %107

68:                                               ; preds = %29
  call void @llvm.lifetime.start.p0(i64 8, ptr %16) #7
  %69 = call ptr @lean_unsigned_to_nat(i32 noundef 12)
  store ptr %69, ptr %16, align 8, !tbaa !4
  %70 = load ptr, ptr %16, align 8, !tbaa !4
  store ptr %70, ptr %2, align 8
  call void @llvm.lifetime.end.p0(i64 8, ptr %16) #7
  br label %107

71:                                               ; preds = %29
  call void @llvm.lifetime.start.p0(i64 8, ptr %17) #7
  %72 = call ptr @lean_unsigned_to_nat(i32 noundef 13)
  store ptr %72, ptr %17, align 8, !tbaa !4
  %73 = load ptr, ptr %17, align 8, !tbaa !4
  store ptr %73, ptr %2, align 8
  call void @llvm.lifetime.end.p0(i64 8, ptr %17) #7
  br label %107

74:                                               ; preds = %29
  call void @llvm.lifetime.start.p0(i64 8, ptr %18) #7
  %75 = call ptr @lean_unsigned_to_nat(i32 noundef 14)
  store ptr %75, ptr %18, align 8, !tbaa !4
  %76 = load ptr, ptr %18, align 8, !tbaa !4
  store ptr %76, ptr %2, align 8
  call void @llvm.lifetime.end.p0(i64 8, ptr %18) #7
  br label %107

77:                                               ; preds = %29
  call void @llvm.lifetime.start.p0(i64 8, ptr %19) #7
  %78 = call ptr @lean_unsigned_to_nat(i32 noundef 15)
  store ptr %78, ptr %19, align 8, !tbaa !4
  %79 = load ptr, ptr %19, align 8, !tbaa !4
  store ptr %79, ptr %2, align 8
  call void @llvm.lifetime.end.p0(i64 8, ptr %19) #7
  br label %107

80:                                               ; preds = %29
  call void @llvm.lifetime.start.p0(i64 8, ptr %20) #7
  %81 = call ptr @lean_unsigned_to_nat(i32 noundef 16)
  store ptr %81, ptr %20, align 8, !tbaa !4
  %82 = load ptr, ptr %20, align 8, !tbaa !4
  store ptr %82, ptr %2, align 8
  call void @llvm.lifetime.end.p0(i64 8, ptr %20) #7
  br label %107

83:                                               ; preds = %29
  call void @llvm.lifetime.start.p0(i64 8, ptr %21) #7
  %84 = call ptr @lean_unsigned_to_nat(i32 noundef 17)
  store ptr %84, ptr %21, align 8, !tbaa !4
  %85 = load ptr, ptr %21, align 8, !tbaa !4
  store ptr %85, ptr %2, align 8
  call void @llvm.lifetime.end.p0(i64 8, ptr %21) #7
  br label %107

86:                                               ; preds = %29
  call void @llvm.lifetime.start.p0(i64 8, ptr %22) #7
  %87 = call ptr @lean_unsigned_to_nat(i32 noundef 18)
  store ptr %87, ptr %22, align 8, !tbaa !4
  %88 = load ptr, ptr %22, align 8, !tbaa !4
  store ptr %88, ptr %2, align 8
  call void @llvm.lifetime.end.p0(i64 8, ptr %22) #7
  br label %107

89:                                               ; preds = %29
  call void @llvm.lifetime.start.p0(i64 8, ptr %23) #7
  %90 = call ptr @lean_unsigned_to_nat(i32 noundef 19)
  store ptr %90, ptr %23, align 8, !tbaa !4
  %91 = load ptr, ptr %23, align 8, !tbaa !4
  store ptr %91, ptr %2, align 8
  call void @llvm.lifetime.end.p0(i64 8, ptr %23) #7
  br label %107

92:                                               ; preds = %29
  call void @llvm.lifetime.start.p0(i64 8, ptr %24) #7
  %93 = call ptr @lean_unsigned_to_nat(i32 noundef 20)
  store ptr %93, ptr %24, align 8, !tbaa !4
  %94 = load ptr, ptr %24, align 8, !tbaa !4
  store ptr %94, ptr %2, align 8
  call void @llvm.lifetime.end.p0(i64 8, ptr %24) #7
  br label %107

95:                                               ; preds = %29
  call void @llvm.lifetime.start.p0(i64 8, ptr %25) #7
  %96 = call ptr @lean_unsigned_to_nat(i32 noundef 21)
  store ptr %96, ptr %25, align 8, !tbaa !4
  %97 = load ptr, ptr %25, align 8, !tbaa !4
  store ptr %97, ptr %2, align 8
  call void @llvm.lifetime.end.p0(i64 8, ptr %25) #7
  br label %107

98:                                               ; preds = %29
  call void @llvm.lifetime.start.p0(i64 8, ptr %26) #7
  %99 = call ptr @lean_unsigned_to_nat(i32 noundef 22)
  store ptr %99, ptr %26, align 8, !tbaa !4
  %100 = load ptr, ptr %26, align 8, !tbaa !4
  store ptr %100, ptr %2, align 8
  call void @llvm.lifetime.end.p0(i64 8, ptr %26) #7
  br label %107

101:                                              ; preds = %29
  call void @llvm.lifetime.start.p0(i64 8, ptr %27) #7
  %102 = call ptr @lean_unsigned_to_nat(i32 noundef 23)
  store ptr %102, ptr %27, align 8, !tbaa !4
  %103 = load ptr, ptr %27, align 8, !tbaa !4
  store ptr %103, ptr %2, align 8
  call void @llvm.lifetime.end.p0(i64 8, ptr %27) #7
  br label %107

104:                                              ; preds = %29
  call void @llvm.lifetime.start.p0(i64 8, ptr %28) #7
  %105 = call ptr @lean_unsigned_to_nat(i32 noundef 24)
  store ptr %105, ptr %28, align 8, !tbaa !4
  %106 = load ptr, ptr %28, align 8, !tbaa !4
  store ptr %106, ptr %2, align 8
  call void @llvm.lifetime.end.p0(i64 8, ptr %28) #7
  br label %107

107:                                              ; preds = %104, %101, %98, %95, %92, %89, %86, %83, %80, %77, %74, %71, %68, %65, %62, %59, %56, %53, %50, %47, %44, %41, %38, %35, %32
  %108 = load ptr, ptr %2, align 8
  ret ptr %108
}

; Function Attrs: nounwind uwtable
define ptr @l_Lean_Lsp_instToJsonCompletionItemKind(i8 noundef zeroext %0) #2 {
  %2 = alloca i8, align 1
  %3 = alloca ptr, align 8
  %4 = alloca ptr, align 8
  %5 = alloca ptr, align 8
  %6 = alloca ptr, align 8
  %7 = alloca ptr, align 8
  store i8 %0, ptr %2, align 1, !tbaa !12
  br label %8

8:                                                ; preds = %1
  call void @llvm.lifetime.start.p0(i64 8, ptr %3) #7
  call void @llvm.lifetime.start.p0(i64 8, ptr %4) #7
  call void @llvm.lifetime.start.p0(i64 8, ptr %5) #7
  call void @llvm.lifetime.start.p0(i64 8, ptr %6) #7
  call void @llvm.lifetime.start.p0(i64 8, ptr %7) #7
  %9 = load i8, ptr %2, align 1, !tbaa !12
  %10 = call ptr @l_Lean_Lsp_CompletionItemKind_toCtorIdx(i8 noundef zeroext %9)
  store ptr %10, ptr %3, align 8, !tbaa !4
  %11 = call ptr @lean_unsigned_to_nat(i32 noundef 1)
  store ptr %11, ptr %4, align 8, !tbaa !4
  %12 = load ptr, ptr %3, align 8, !tbaa !4
  %13 = load ptr, ptr %4, align 8, !tbaa !4
  %14 = call ptr @lean_nat_add(ptr noundef %12, ptr noundef %13)
  store ptr %14, ptr %5, align 8, !tbaa !4
  %15 = load ptr, ptr %3, align 8, !tbaa !4
  call void @lean_dec(ptr noundef %15)
  %16 = load ptr, ptr %5, align 8, !tbaa !4
  %17 = call ptr @l_Lean_JsonNumber_fromNat(ptr noundef %16)
  store ptr %17, ptr %6, align 8, !tbaa !4
  %18 = call ptr @lean_alloc_ctor(i32 noundef 2, i32 noundef 1, i32 noundef 0)
  store ptr %18, ptr %7, align 8, !tbaa !4
  %19 = load ptr, ptr %7, align 8, !tbaa !4
  %20 = load ptr, ptr %6, align 8, !tbaa !4
  call void @lean_ctor_set(ptr noundef %19, i32 noundef 0, ptr noundef %20)
  %21 = load ptr, ptr %7, align 8, !tbaa !4
  call void @llvm.lifetime.end.p0(i64 8, ptr %7) #7
  call void @llvm.lifetime.end.p0(i64 8, ptr %6) #7
  call void @llvm.lifetime.end.p0(i64 8, ptr %5) #7
  call void @llvm.lifetime.end.p0(i64 8, ptr %4) #7
  call void @llvm.lifetime.end.p0(i64 8, ptr %3) #7
  ret ptr %21
}