; Function Attrs: nounwind uwtable
define noalias nonnull ptr @l_Lean_Lsp_instToJsonCompletionItemKind(i8 noundef zeroext %0) local_unnamed_addr #0 {
lean_dec.exit:
  %1 = icmp ult i8 %0, 24
  %switch.idx.cast = zext i8 %0 to i64
  %switch.idx.mult = shl nuw nsw i64 %switch.idx.cast, 1
  %switch.offset = add nuw nsw i64 %switch.idx.mult, 3
  %2 = inttoptr i64 %switch.offset to ptr
  %3 = select i1 %1, ptr %2, ptr inttoptr (i64 51 to ptr)
  %4 = tail call ptr @l_Lean_JsonNumber_fromNat(ptr noundef nonnull %3) #9
  tail call void @lean_inc_heartbeat() #9
  %5 = tail call noalias ptr @mi_malloc_small(i64 noundef 16) #9
  %6 = icmp eq ptr %5, null
  br i1 %6, label %7, label %lean_alloc_ctor.exit

7:                                                ; preds = %lean_dec.exit
  tail call void @lean_internal_panic_out_of_memory() #10
  unreachable

lean_alloc_ctor.exit:                             ; preds = %lean_dec.exit
  %8 = getelementptr inbounds nuw i8, ptr %5, i64 4
  store i32 1, ptr %5, align 4, !tbaa !8
  store i32 33619984, ptr %8, align 4
  %9 = getelementptr inbounds nuw i8, ptr %5, i64 8
  store ptr %4, ptr %9, align 8, !tbaa !4
  ret ptr %5
}